; Function Attrs: nounwind uwtable
define dso_local void @psql_scan_finish(ptr noundef captures(none) %0) local_unnamed_addr #0 {
  %2 = getelementptr inbounds nuw i8, ptr %0, i64 16
  %3 = load ptr, ptr %2, align 8
  %.not12 = icmp eq ptr %3, null
  br i1 %.not12, label %._crit_edge, label %.lr.ph

.lr.ph:                                           ; preds = %1, %.lr.ph
  tail call void @psqlscan_pop_buffer_stack(ptr noundef nonnull %0)
  %4 = load ptr, ptr %2, align 8
  %.not = icmp eq ptr %4, null
  br i1 %.not, label %._crit_edge, label %.lr.ph, !llvm.loop !18

._crit_edge:                                      ; preds = %.lr.ph, %1
  %5 = getelementptr inbounds nuw i8, ptr %0, i64 24
  %6 = load ptr, ptr %5, align 8
  %.not10 = icmp eq ptr %6, null
  br i1 %.not10, label %23, label %7

7:                                                ; preds = %._crit_edge
  %8 = load ptr, ptr %0, align 8
  %9 = getelementptr inbounds nuw i8, ptr %8, i64 40
  %10 = load ptr, ptr %9, align 8
  %.not14.i = icmp eq ptr %10, null
  br i1 %.not14.i, label %.thread.i, label %11

11:                                               ; preds = %7
  %12 = getelementptr inbounds nuw i8, ptr %8, i64 24
  %13 = load i64, ptr %12, align 8
  %14 = getelementptr inbounds nuw ptr, ptr %10, i64 %13
  %15 = load ptr, ptr %14, align 8
  %16 = icmp eq ptr %6, %15
  br i1 %16, label %17, label %.thread.i

17:                                               ; preds = %11
  store ptr null, ptr %14, align 8
  br label %.thread.i

.thread.i:                                        ; preds = %17, %11, %7
  %18 = getelementptr inbounds nuw i8, ptr %6, i64 32
  %19 = load i32, ptr %18, align 8
  %.not15.i = icmp eq i32 %19, 0
  br i1 %.not15.i, label %psql_yy_delete_buffer.exit, label %20

20:                                               ; preds = %.thread.i
  %21 = getelementptr inbounds nuw i8, ptr %6, i64 8
  %22 = load ptr, ptr %21, align 8
  tail call void @free(ptr noundef %22) #27
  br label %psql_yy_delete_buffer.exit

psql_yy_delete_buffer.exit:                       ; preds = %.thread.i, %20
  tail call void @free(ptr noundef nonnull %6) #27
  br label %23

23:                                               ; preds = %psql_yy_delete_buffer.exit, %._crit_edge
  store ptr null, ptr %5, align 8
  %24 = getelementptr inbounds nuw i8, ptr %0, i64 32
  %25 = load ptr, ptr %24, align 8
  %.not11 = icmp eq ptr %25, null
  br i1 %.not11, label %27, label %26

26:                                               ; preds = %23
  tail call void @free(ptr noundef nonnull %25) #27
  br label %27

27:                                               ; preds = %26, %23
  store ptr null, ptr %24, align 8
  ret void
}